target datalayout = "e-m:e-p270:32:32-p271:32:32-p272:64:64-i64:64-i128:128-f80:128-n8:16:32:64-S128"
target triple = "x86_64-pc-linux-gnu"

%struct.listNode = type { ptr, ptr, ptr }
%struct.client = type { i64, i64, ptr, i8, i8, i8, i8, i32, ptr, ptr, ptr, ptr, ptr, i64, i64, i32, ptr, i32, i32, ptr, i64, ptr, ptr, ptr, ptr, ptr, i32, i32, i64, ptr, i64, ptr, i64, i64, i64, i32, ptr, i64, i64, i32, i32, i32, i32, i64, i64, ptr, i64, i64, i64, i64, i64, i64, i64, i64, [41 x i8], i32, ptr, i32, i32, i64, %struct.multiState, %struct.blockingState, i64, ptr, ptr, ptr, ptr, ptr, ptr, ptr, ptr, ptr, ptr, ptr, ptr, ptr, ptr, i64, ptr, i64, i32, ptr, ptr, ptr, i64, %struct.listNode, i64, i64, i32, i64, ptr }
%struct.multiState = type { ptr, i32, i32, i32, i64, i32 }
%struct.blockingState = type { i32, i64, i32, ptr, i32, i32, i64, ptr, ptr, i64 }

; Function Attrs: nounwind uwtable
define dso_local i32 @ACLCheckAllPerm(ptr noundef %0, ptr noundef %1) #0 {
  %3 = alloca ptr, align 8
  %4 = alloca ptr, align 8
  store ptr %0, ptr %3, align 8, !tbaa !95
  store ptr %1, ptr %4, align 8, !tbaa !131
  %5 = load ptr, ptr %3, align 8, !tbaa !95
  %6 = getelementptr inbounds nuw %struct.client, ptr %5, i32 0, i32 25
  %7 = load ptr, ptr %6, align 8, !tbaa !96
  %8 = load ptr, ptr %3, align 8, !tbaa !95
  %9 = getelementptr inbounds nuw %struct.client, ptr %8, i32 0, i32 21
  %10 = load ptr, ptr %9, align 8, !tbaa !169
  %11 = load ptr, ptr %3, align 8, !tbaa !95
  %12 = getelementptr inbounds nuw %struct.client, ptr %11, i32 0, i32 16
  %13 = load ptr, ptr %12, align 8, !tbaa !170
  %14 = load ptr, ptr %3, align 8, !tbaa !95
  %15 = getelementptr inbounds nuw %struct.client, ptr %14, i32 0, i32 15
  %16 = load i32, ptr %15, align 8, !tbaa !196
  %17 = load ptr, ptr %4, align 8, !tbaa !131
  %18 = call i32 @ACLCheckAllUserCommandPerm(ptr noundef %7, ptr noundef %10, ptr noundef %13, i32 noundef %16, ptr noundef %17)
  ret i32 %18
}