; Function Attrs: nounwind uwtable
define dso_local range(i32 0, 5) i32 @ACLCheckAllPerm(ptr noundef readonly captures(none) %0, ptr noundef writeonly captures(none) %1) local_unnamed_addr #0 {
  %3 = getelementptr inbounds nuw i8, ptr %0, i64 160
  %4 = load ptr, ptr %3, align 8, !tbaa !93
  %5 = getelementptr inbounds nuw i8, ptr %0, i64 128
  %6 = load ptr, ptr %5, align 8, !tbaa !166
  %7 = getelementptr inbounds nuw i8, ptr %0, i64 96
  %8 = load ptr, ptr %7, align 8, !tbaa !167
  %9 = getelementptr inbounds nuw i8, ptr %0, i64 88
  %10 = load i32, ptr %9, align 8, !tbaa !189
  %11 = tail call i32 @ACLCheckAllUserCommandPerm(ptr noundef %4, ptr noundef %6, ptr noundef %8, i32 noundef %10, ptr noundef %1)
  ret i32 %11
}